; ModuleID = 'bench/hdf5/original/H5VLnative_token.ll'
source_filename = "bench/hdf5/original/H5VLnative_token.ll"
target datalayout = "e-m:e-p270:32:32-p271:32:32-p272:64:64-i64:64-i128:128-f80:128-n8:16:32:64-S128"
target triple = "x86_64-pc-linux-gnu"

@.str = private unnamed_addr constant [110 x i8] c"generated/home/dtcxzyw/WorkSpace/Projects/compilers/llvm-opt-benchmark/bench/hdf5/hdf5/src/H5VLnative_token.c\00", align 1
@__func__.H5VL__native_token_to_str = private unnamed_addr constant [26 x i8] c"H5VL__native_token_to_str\00", align 1
@H5E_FILE_g = external local_unnamed_addr global i64, align 8
@H5E_CANTDECODE_g = external local_unnamed_addr global i64, align 8
@.str.1 = private unnamed_addr constant [38 x i8] c"can't convert object token to address\00", align 1
@H5E_RESOURCE_g = external local_unnamed_addr global i64, align 8
@H5E_CANTALLOC_g = external local_unnamed_addr global i64, align 8
@.str.2 = private unnamed_addr constant [39 x i8] c"can't allocate buffer for token string\00", align 1
@.str.3 = private unnamed_addr constant [4 x i8] c"%lu\00", align 1
@__func__.H5VL__native_str_to_token = private unnamed_addr constant [26 x i8] c"H5VL__native_str_to_token\00", align 1
@.str.4 = private unnamed_addr constant [38 x i8] c"can't convert address to object token\00", align 1

; Function Attrs: mustprogress nofree nounwind willreturn memory(argmem: readwrite) uwtable
define noundef i32 @H5VL__native_token_cmp(ptr noundef readnone captures(none) %0, ptr noundef readonly captures(none) %1, ptr noundef readonly captures(none) %2, ptr noundef writeonly captures(none) initializes((0, 4)) %3) local_unnamed_addr #0 {
  %5 = tail call i32 @memcmp(ptr noundef nonnull dereferenceable(16) %1, ptr noundef nonnull dereferenceable(16) %2, i64 noundef 16) #9
  store i32 %5, ptr %3, align 4, !tbaa !3
  ret i32 0
}

; Function Attrs: mustprogress nocallback nofree nosync nounwind willreturn memory(argmem: readwrite)
declare void @llvm.lifetime.start.p0(i64 immarg, ptr captures(none)) #1

; Function Attrs: mustprogress nofree nounwind willreturn memory(argmem: read)
declare i32 @memcmp(ptr noundef captures(none), ptr noundef captures(none), i64 noundef) local_unnamed_addr #2

; Function Attrs: mustprogress nocallback nofree nosync nounwind willreturn memory(argmem: readwrite)
declare void @llvm.lifetime.end.p0(i64 immarg, ptr captures(none)) #1

; Function Attrs: nounwind uwtable
define range(i32 -1, 1) i32 @H5VL__native_token_to_str(ptr noundef %0, i32 noundef %1, ptr noundef readonly captures(none) %2, ptr noundef writeonly captures(none) %3) local_unnamed_addr #3 {
  %5 = alloca i64, align 8
  call void @llvm.lifetime.start.p0(i64 8, ptr nonnull %5) #10
  %6 = load i64, ptr %2, align 1
  %7 = getelementptr inbounds nuw i8, ptr %2, i64 8
  %8 = load i64, ptr %7, align 1
  %9 = call i32 @H5VL_native_token_to_addr(ptr noundef %0, i32 noundef %1, i64 %6, i64 %8, ptr noundef nonnull %5) #10
  %10 = icmp slt i32 %9, 0
  br i1 %10, label %11, label %15

11:                                               ; preds = %4
  %12 = load i64, ptr @H5E_FILE_g, align 8, !tbaa !7
  %13 = load i64, ptr @H5E_CANTDECODE_g, align 8, !tbaa !7
  %14 = call i32 (ptr, ptr, i32, i64, i64, ptr, ...) @H5E_printf_stack(ptr noundef nonnull @.str, ptr noundef nonnull @__func__.H5VL__native_token_to_str, i32 noundef 106, i64 noundef %12, i64 noundef %13, ptr noundef nonnull @.str.1) #10
  br label %34

15:                                               ; preds = %4
  %16 = load i64, ptr %5, align 8, !tbaa !7
  %17 = icmp eq i64 %16, 0
  br i1 %17, label %25, label %18

18:                                               ; preds = %15
  %19 = uitofp i64 %16 to double
  %20 = call double @log10(double noundef %19) #10, !tbaa !3
  %21 = call double @llvm.floor.f64(double %20)
  %22 = fadd double %21, 1.000000e+00
  %23 = fptoui double %22 to i64
  %24 = add i64 %23, 1
  br label %25

25:                                               ; preds = %15, %18
  %.09 = phi i64 [ %24, %18 ], [ 2, %15 ]
  %26 = call noalias ptr @malloc(i64 noundef %.09) #11
  store ptr %26, ptr %3, align 8, !tbaa !9
  %27 = icmp eq ptr %26, null
  br i1 %27, label %28, label %32

28:                                               ; preds = %25
  %29 = load i64, ptr @H5E_RESOURCE_g, align 8, !tbaa !7
  %30 = load i64, ptr @H5E_CANTALLOC_g, align 8, !tbaa !7
  %31 = call i32 (ptr, ptr, i32, i64, i64, ptr, ...) @H5E_printf_stack(ptr noundef nonnull @.str, ptr noundef nonnull @__func__.H5VL__native_token_to_str, i32 noundef 114, i64 noundef %29, i64 noundef %30, ptr noundef nonnull @.str.2) #10
  br label %34

32:                                               ; preds = %25
  %33 = call i32 (ptr, i64, ptr, ...) @snprintf(ptr noundef nonnull %26, i64 noundef %.09, ptr noundef nonnull @.str.3, i64 noundef %16) #10
  br label %34

34:                                               ; preds = %32, %28, %11
  %.0 = phi i32 [ -1, %11 ], [ -1, %28 ], [ 0, %32 ]
  call void @llvm.lifetime.end.p0(i64 8, ptr nonnull %5) #10
  ret i32 %.0
}

declare i32 @H5VL_native_token_to_addr(ptr noundef, i32 noundef, i64, i64, ptr noundef) local_unnamed_addr #4

declare i32 @H5E_printf_stack(ptr noundef, ptr noundef, i32 noundef, i64 noundef, i64 noundef, ptr noundef, ...) local_unnamed_addr #4

; Function Attrs: mustprogress nofree nounwind willreturn memory(write)
declare double @log10(double noundef) local_unnamed_addr #5

; Function Attrs: mustprogress nocallback nofree nosync nounwind speculatable willreturn memory(none)
declare double @llvm.floor.f64(double) #6

; Function Attrs: mustprogress nofree nounwind willreturn allockind("alloc,uninitialized") allocsize(0) memory(inaccessiblemem: readwrite)
declare noalias noundef ptr @malloc(i64 noundef) local_unnamed_addr #7

; Function Attrs: nofree nounwind
declare noundef i32 @snprintf(ptr noalias noundef writeonly captures(none), i64 noundef, ptr noundef readonly captures(none), ...) local_unnamed_addr #8

; Function Attrs: nounwind uwtable
define range(i32 -1, 1) i32 @H5VL__native_str_to_token(ptr noundef %0, i32 noundef %1, ptr noundef readonly captures(none) %2, ptr noundef %3) local_unnamed_addr #3 {
  %5 = alloca i64, align 8
  call void @llvm.lifetime.start.p0(i64 8, ptr nonnull %5) #10
  %6 = call i32 (ptr, ptr, ...) @__isoc99_sscanf(ptr noundef %2, ptr noundef nonnull @.str.3, ptr noundef nonnull %5) #10
  %7 = load i64, ptr %5, align 8, !tbaa !7
  %8 = call i32 @H5VL_native_addr_to_token(ptr noundef %0, i32 noundef %1, i64 noundef %7, ptr noundef %3) #10
  %9 = icmp slt i32 %8, 0
  br i1 %9, label %10, label %14

10:                                               ; preds = %4
  %11 = load i64, ptr @H5E_FILE_g, align 8, !tbaa !7
  %12 = load i64, ptr @H5E_CANTDECODE_g, align 8, !tbaa !7
  %13 = call i32 (ptr, ptr, i32, i64, i64, ptr, ...) @H5E_printf_stack(ptr noundef nonnull @.str, ptr noundef nonnull @__func__.H5VL__native_str_to_token, i32 noundef 146, i64 noundef %11, i64 noundef %12, ptr noundef nonnull @.str.4) #10
  br label %14

14:                                               ; preds = %4, %10
  %.0 = phi i32 [ -1, %10 ], [ 0, %4 ]
  call void @llvm.lifetime.end.p0(i64 8, ptr nonnull %5) #10
  ret i32 %.0
}

; Function Attrs: nofree nounwind
declare noundef i32 @__isoc99_sscanf(ptr noundef readonly captures(none), ptr noundef readonly captures(none), ...) local_unnamed_addr #8

declare i32 @H5VL_native_addr_to_token(ptr noundef, i32 noundef, i64 noundef, ptr noundef) local_unnamed_addr #4


!llvm.module.flags = !{!0, !1, !2}

!0 = !{i32 1, !"wchar_size", i32 4}
!1 = !{i32 8, !"PIC Level", i32 2}
!2 = !{i32 7, !"uwtable", i32 2}
!3 = !{!4, !4, i64 0}
!4 = !{!"int", !5, i64 0}
!5 = !{!"omnipotent char", !6, i64 0}
!6 = !{!"Simple C/C++ TBAA"}
!7 = !{!8, !8, i64 0}
!8 = !{!"long", !5, i64 0}
!9 = !{!10, !10, i64 0}
!10 = !{!"p1 omnipotent char", !11, i64 0}
!11 = !{!"any pointer", !5, i64 0}
